; Function Attrs: mustprogress nounwind uwtable
define hidden noundef i32 @_ZN12HotSpotJVMCI13BytecodeFrame13get_AFTER_BCIEP8JVMCIEnv(ptr nocapture noundef readnone %0) local_unnamed_addr #0 align 2 {
  %2 = load ptr, ptr @_ZN12HotSpotJVMCI13BytecodeFrame6_klassE, align 8
  %3 = getelementptr inbounds i8, ptr %2, i64 112
  %4 = load ptr, ptr %3, align 8
  %5 = icmp eq ptr %4, null
  br i1 %5, label %_ZN13InstanceKlass21static_field_base_rawEv.exit, label %6

6:                                                ; preds = %1
  %7 = load ptr, ptr @_ZN14AccessInternal15RuntimeDispatchILm548932EP7oopDescLNS_11BarrierTypeE2EE10_load_funcE, align 8
  %8 = tail call noundef ptr %7(ptr noundef nonnull %4) #13
  %9 = ptrtoint ptr %8 to i64
  br label %_ZN13InstanceKlass21static_field_base_rawEv.exit

_ZN13InstanceKlass21static_field_base_rawEv.exit: ; preds = %1, %6
  %10 = phi i64 [ %9, %6 ], [ 0, %1 ]
  %11 = load i32, ptr @_ZN12HotSpotJVMCI13BytecodeFrame17_AFTER_BCI_offsetE, align 4
  %12 = sext i32 %11 to i64
  %13 = add nsw i64 %10, %12
  %14 = inttoptr i64 %13 to ptr
  %15 = load i32, ptr %14, align 4
  ret i32 %15
}